target datalayout = "e-m:e-p270:32:32-p271:32:32-p272:64:64-i64:64-i128:128-f80:128-n8:16:32:64-S128"
target triple = "x86_64-pc-linux-gnu"

%struct.sat_solver2_t = type { i32, i32, i32, i32, i32, double, double, i32, i32, i32, i32, ptr, ptr, i32, i32, i32, i32, i32, i32, i32, i32, i32, i32, i32, %struct.Sat_Mem_t_, ptr, %struct.veci_t, %struct.veci_t, i32, i32, i32, ptr, ptr, ptr, ptr, ptr, ptr, ptr, ptr, %struct.veci_t, %struct.veci_t, %struct.veci_t, %struct.veci_t, %struct.veci_t, %struct.veci_t, %struct.veci_t, %struct.veci_t, %struct.veci_t, %struct.veci_t, ptr, %struct.veci_t, i32, i32, ptr, double, ptr, i32, %struct.stats_t, i64, i64, i64 }
%struct.Sat_Mem_t_ = type { [2 x i32], [2 x i32], [2 x i32], [2 x i32], i32, i32, i32, i32, ptr }
%struct.veci_t = type { i32, i32, ptr }
%struct.stats_t = type { i32, i32, i32, i64, i64, i64, i64, i64, i64, i64 }
%struct.varinfo2_t = type { i8, [3 x i8] }

; Function Attrs: nounwind uwtable
define i32 @var_is_partA(ptr noundef %0, i32 noundef %1) #0 {
  %3 = alloca ptr, align 8
  %4 = alloca i32, align 4
  store ptr %0, ptr %3, align 8
  store i32 %1, ptr %4, align 4
  %5 = load ptr, ptr %3, align 8
  %6 = getelementptr inbounds %struct.sat_solver2_t, ptr %5, i32 0, i32 31
  %7 = load ptr, ptr %6, align 8
  %8 = load i32, ptr %4, align 4
  %9 = sext i32 %8 to i64
  %10 = getelementptr inbounds %struct.varinfo2_t, ptr %7, i64 %9
  %11 = load i8, ptr %10, align 4
  %12 = lshr i8 %11, 1
  %13 = and i8 %12, 1
  %14 = zext i8 %13 to i32
  ret i32 %14
}