; Function Attrs: mustprogress nofree norecurse nosync nounwind willreturn memory(read, inaccessiblemem: none) uwtable
define range(i32 0, 2) i32 @var_is_partA(ptr noundef readonly captures(none) %0, i32 noundef %1) local_unnamed_addr #0 {
  %3 = getelementptr inbounds nuw i8, ptr %0, i64 232
  %4 = load ptr, ptr %3, align 8
  %5 = sext i32 %1 to i64
  %6 = getelementptr inbounds %struct.varinfo2_t, ptr %4, i64 %5
  %7 = load i8, ptr %6, align 4
  %8 = lshr i8 %7, 1
  %9 = and i8 %8, 1
  %10 = zext nneg i8 %9 to i32
  ret i32 %10
}